target datalayout = "e-m:e-p270:32:32-p271:32:32-p272:64:64-i64:64-i128:128-f80:128-n8:16:32:64-S128"
target triple = "x86_64-pc-linux-gnu"

%struct.stbvox_mesh_maker = type { %struct.stbvox_input_description, i32, i32, i32, i32, i32, i32, i32, i32, i32, i32, i32, i32, i32, i32, [6 x [4 x i32]], [6 x [4 x i32]], i32, i32, i32, i32, [2 x [3 x ptr]], [2 x [3 x ptr]], [2 x [3 x ptr]], [2 x [3 x i32]], [2 x [3 x i32]], [2 x [3 x i32]], i32, [128 x [2 x float]] }
%struct.stbvox_input_description = type { i8, ptr, ptr, ptr, ptr, ptr, ptr, ptr, ptr, ptr, ptr, ptr, ptr, ptr, ptr, ptr, ptr, ptr, ptr, ptr, ptr, ptr, ptr, ptr, ptr, ptr, ptr, ptr, ptr, ptr, ptr, ptr, ptr, ptr, ptr, ptr, ptr, ptr, ptr, ptr, ptr, ptr, ptr }

; Function Attrs: nounwind uwtable
define void @stbvox_set_mesh_coordinates(ptr noundef %0, i32 noundef %1, i32 noundef %2, i32 noundef %3) #0 {
  %5 = alloca ptr, align 8
  %6 = alloca i32, align 4
  %7 = alloca i32, align 4
  %8 = alloca i32, align 4
  store ptr %0, ptr %5, align 8, !tbaa !20
  store i32 %1, ptr %6, align 4, !tbaa !3
  store i32 %2, ptr %7, align 4, !tbaa !3
  store i32 %3, ptr %8, align 4, !tbaa !3
  %9 = load i32, ptr %6, align 4, !tbaa !3
  %10 = load ptr, ptr %5, align 8, !tbaa !20
  %11 = getelementptr inbounds nuw %struct.stbvox_mesh_maker, ptr %10, i32 0, i32 17
  store i32 %9, ptr %11, align 8, !tbaa !120
  %12 = load i32, ptr %7, align 4, !tbaa !3
  %13 = load ptr, ptr %5, align 8, !tbaa !20
  %14 = getelementptr inbounds nuw %struct.stbvox_mesh_maker, ptr %13, i32 0, i32 18
  store i32 %12, ptr %14, align 4, !tbaa !121
  %15 = load i32, ptr %8, align 4, !tbaa !3
  %16 = load ptr, ptr %5, align 8, !tbaa !20
  %17 = getelementptr inbounds nuw %struct.stbvox_mesh_maker, ptr %16, i32 0, i32 19
  store i32 %15, ptr %17, align 8, !tbaa !122
  ret void
}