; Function Attrs: mustprogress nofree norecurse nosync nounwind willreturn memory(argmem: write) uwtable
define void @stbvox_set_mesh_coordinates(ptr noundef writeonly captures(none) initializes((592, 604)) %0, i32 noundef %1, i32 noundef %2, i32 noundef %3) local_unnamed_addr #13 {
  %5 = getelementptr inbounds nuw i8, ptr %0, i64 592
  store i32 %1, ptr %5, align 8, !tbaa !99
  %6 = getelementptr inbounds nuw i8, ptr %0, i64 596
  store i32 %2, ptr %6, align 4, !tbaa !100
  %7 = getelementptr inbounds nuw i8, ptr %0, i64 600
  store i32 %3, ptr %7, align 8, !tbaa !101
  ret void
}